target datalayout = "e-m:e-p270:32:32-p271:32:32-p272:64:64-i64:64-i128:128-f80:128-n8:16:32:64-S128"
target triple = "x86_64-pc-linux-gnu"

; Function Attrs: nounwind uwtable
define dso_local i32 @uv_os_getpriority(i32 noundef %0, ptr noundef %1) #0 {
  %3 = alloca i32, align 4
  %4 = alloca i32, align 4
  %5 = alloca ptr, align 8
  %6 = alloca i32, align 4
  %7 = alloca i32, align 4
  store i32 %0, ptr %4, align 4
  store ptr %1, ptr %5, align 8
  call void @llvm.lifetime.start.p0(i64 4, ptr %6) #11
  %8 = load ptr, ptr %5, align 8
  %9 = icmp eq ptr %8, null
  br i1 %9, label %10, label %11

10:                                               ; preds = %2
  store i32 -22, ptr %3, align 4
  store i32 1, ptr %7, align 4
  br label %28

11:                                               ; preds = %2
  %12 = call ptr @__errno_location() #12
  store i32 0, ptr %12, align 4
  %13 = load i32, ptr %4, align 4
  %14 = call i32 @getpriority(i32 noundef 0, i32 noundef %13) #11
  store i32 %14, ptr %6, align 4
  %15 = load i32, ptr %6, align 4
  %16 = icmp eq i32 %15, -1
  br i1 %16, label %17, label %25

17:                                               ; preds = %11
  %18 = call ptr @__errno_location() #12
  %19 = load i32, ptr %18, align 4
  %20 = icmp ne i32 %19, 0
  br i1 %20, label %21, label %25

21:                                               ; preds = %17
  %22 = call ptr @__errno_location() #12
  %23 = load i32, ptr %22, align 4
  %24 = sub nsw i32 0, %23
  store i32 %24, ptr %3, align 4
  store i32 1, ptr %7, align 4
  br label %28

25:                                               ; preds = %17, %11
  %26 = load i32, ptr %6, align 4
  %27 = load ptr, ptr %5, align 8
  store i32 %26, ptr %27, align 4
  store i32 0, ptr %3, align 4
  store i32 1, ptr %7, align 4
  br label %28

28:                                               ; preds = %25, %21, %10
  call void @llvm.lifetime.end.p0(i64 4, ptr %6) #11
  %29 = load i32, ptr %3, align 4
  ret i32 %29
}