; Function Attrs: nounwind uwtable
define dso_local range(i32 -2147483647, -2147483648) i32 @uv_os_getpriority(i32 noundef %0, ptr noundef writeonly captures(address_is_null) %1) local_unnamed_addr #0 {
  %3 = icmp eq ptr %1, null
  br i1 %3, label %13, label %4

4:                                                ; preds = %2
  %5 = tail call ptr @__errno_location() #24
  store i32 0, ptr %5, align 4
  %6 = tail call i32 @getpriority(i32 noundef 0, i32 noundef %0) #23
  %7 = icmp eq i32 %6, -1
  br i1 %7, label %8, label %12

8:                                                ; preds = %4
  %9 = load i32, ptr %5, align 4
  %.not = icmp eq i32 %9, 0
  br i1 %.not, label %12, label %10

10:                                               ; preds = %8
  %11 = sub nsw i32 0, %9
  br label %13

12:                                               ; preds = %8, %4
  store i32 %6, ptr %1, align 4
  br label %13

13:                                               ; preds = %2, %12, %10
  %.0 = phi i32 [ %11, %10 ], [ 0, %12 ], [ -22, %2 ]
  ret i32 %.0
}